(lp0
(dp1
Vtimestamp
p2
F1511528128.918
sVcurIn
p3
VOMG
p4
sVcurOut
p5
VETH
p6
sVamount
p7
F629.58833949
sVtxid
p8
I726035
sa(dp9
Vtimestamp
p10
F1511528125.022
sVcurIn
p11
VETH
p12
sVcurOut
p13
VOMG
p14
sVamount
p15
I2
sVtxid
p16
I244037
sa(dp17
Vtimestamp
p18
F1511528124.986
sVcurIn
p19
VETH
p20
sVcurOut
p21
VBTC
p22
sVamount
p23
F0.399118
sVtxid
p24
I707695
sa(dp25
Vtimestamp
p26
F1511528108.867
sVcurIn
p27
VOMG
p28
sVcurOut
p29
VETH
p30
sVamount
p31
F629.09805482
sVtxid
p32
I799312
sa(dp33
Vtimestamp
p34
F1511528107.278
sVcurIn
p35
VSALT
p36
sVcurOut
p37
VETH
p38
sVamount
p39
F5.92173465
sVtxid
p40
I74071
sa(dp41
Vtimestamp
p42
F1511528100.407
sVcurIn
p43
VZEC
p44
sVcurOut
p45
VETH
p46
sVamount
p47
F0.01
sVtxid
p48
I946500
sa(dp49
Vtimestamp
p50
F1511528097.733
sVcurIn
p51
VETH
p52
sVcurOut
p53
VBTC
p54
sVamount
p55
F0.3240819
sVtxid
p56
I326289
sa(dp57
Vtimestamp
p58
F1511528068.143
sVcurIn
p59
VOMG
p60
sVcurOut
p61
VETH
p62
sVamount
p63
F629.09805482
sVtxid
p64
I121788
sa(dp65
Vtimestamp
p66
F1511528068.124
sVcurIn
p67
VOMG
p68
sVcurOut
p69
VETH
p70
sVamount
p71
F628.90570551
sVtxid
p72
I997392
sa(dp73
Vtimestamp
p74
F1511528038.181
sVcurIn
p75
VZEC
p76
sVcurOut
p77
VETH
p78
sVamount
p79
F10.35947816
sVtxid
p80
I798310
sa(dp81
Vtimestamp
p82
F1511528033.881
sVcurIn
p83
VEOS
p84
sVcurOut
p85
VETH
p86
sVamount
p87
F0.5
sVtxid
p88
I974318
sa(dp89
Vtimestamp
p90
F1511528033.803
sVcurIn
p91
VRLC
p92
sVcurOut
p93
VLTC
p94
sVamount
p95
I20
sVtxid
p96
I187574
sa(dp97
Vtimestamp
p98
F1511528024.721
sVcurIn
p99
VOMG
p100
sVcurOut
p101
VETH
p102
sVamount
p103
F380.97691815
sVtxid
p104
I626387
sa(dp105
Vtimestamp
p106
F1511528024.713
sVcurIn
p107
VOMG
p108
sVcurOut
p109
VETH
p110
sVamount
p111
F628.90570551
sVtxid
p112
I514526
sa(dp113
Vtimestamp
p114
F1511528024.703
sVcurIn
p115
VOMG
p116
sVcurOut
p117
VETH
p118
sVamount
p119
F628.90570551
sVtxid
p120
I844086
sa(dp121
Vtimestamp
p122
F1511528022.712
sVcurIn
p123
VLTC
p124
sVcurOut
p125
VETH
p126
sVamount
p127
F0.27184994
sVtxid
p128
I557753
sa(dp129
Vtimestamp
p130
F1511528021.64
sVcurIn
p131
VGNT
p132
sVcurOut
p133
VETH
p134
sVamount
p135
I20000
sVtxid
p136
I454325
sa(dp137
Vtimestamp
p138
F1511528015.241
sVcurIn
p139
VPOT
p140
sVcurOut
p141
VETH
p142
sVamount
p143
F430.61725725
sVtxid
p144
I630113
sa(dp145
Vtimestamp
p146
F1511528014.821
sVcurIn
p147
VETH
p148
sVcurOut
p149
VBCH
p150
sVamount
p151
F0.19429002
sVtxid
p152
I984850
sa(dp153
Vtimestamp
p154
F1511528004.553
sVcurIn
p155
VOMG
p156
sVcurOut
p157
VDASH
p158
sVamount
p159
F2.47284768
sVtxid
p160
I668958
sa(dp161
Vtimestamp
p162
F1511528002.593
sVcurIn
p163
VOMG
p164
sVcurOut
p165
VGNO
p166
sVamount
p167
F4.22323943
sVtxid
p168
I380946
sa(dp169
Vtimestamp
p170
F1511527976.692
sVcurIn
p171
VLTC
p172
sVcurOut
p173
VBCH
p174
sVamount
p175
F0.31897927
sVtxid
p176
I850073
sa(dp177
Vtimestamp
p178
F1511527955.429
sVcurIn
p179
VLTC
p180
sVcurOut
p181
VFUN
p182
sVamount
p183
I2
sVtxid
p184
I9208
sa(dp185
Vtimestamp
p186
F1511527944.848
sVcurIn
p187
VDASH
p188
sVcurOut
p189
VETH
p190
sVamount
p191
F0.03230901
sVtxid
p192
I296661
sa(dp193
Vtimestamp
p194
F1511527939.063
sVcurIn
p195
VXRP
p196
sVcurOut
p197
VETH
p198
sVamount
p199
F371.528446
sVtxid
p200
I586214
sa(dp201
Vtimestamp
p202
F1511527930.231
sVcurIn
p203
VETH
p204
sVcurOut
p205
VBTC
p206
sVamount
p207
F0.08324777
sVtxid
p208
I308103
sa(dp209
Vtimestamp
p210
F1511527921.126
sVcurIn
p211
VZEC
p212
sVcurOut
p213
VETH
p214
sVamount
p215
F0.04014825
sVtxid
p216
I133592
sa(dp217
Vtimestamp
p218
F1511527899.986
sVcurIn
p219
VZEC
p220
sVcurOut
p221
VETH
p222
sVamount
p223
F5.53632157
sVtxid
p224
I760519
sa(dp225
Vtimestamp
p226
F1511527899.954
sVcurIn
p227
VZEC
p228
sVcurOut
p229
VBTC
p230
sVamount
p231
F0.03715772
sVtxid
p232
I159757
sa(dp233
Vtimestamp
p234
F1511527897.934
sVcurIn
p235
VRLC
p236
sVcurOut
p237
VETH
p238
sVamount
p239
I28
sVtxid
p240
I468949
sa(dp241
Vtimestamp
p242
F1511527891.244
sVcurIn
p243
VLTC
p244
sVcurOut
p245
VDASH
p246
sVamount
p247
F0.1691
sVtxid
p248
I172727
sa(dp249
Vtimestamp
p250
F1511527884.947
sVcurIn
p251
VGNO
p252
sVcurOut
p253
VLTC
p254
sVamount
p255
F2.0968344
sVtxid
p256
I818967
sa(dp257
Vtimestamp
p258
F1511527870.051
sVcurIn
p259
VLTC
p260
sVcurOut
p261
VBCH
p262
sVamount
p263
F24.66
sVtxid
p264
I947804
sa(dp265
Vtimestamp
p266
F1511527868.692
sVcurIn
p267
VETH
p268
sVcurOut
p269
VOMG
p270
sVamount
p271
F4.395
sVtxid
p272
I183774
sa(dp273
Vtimestamp
p274
F1511527857.323
sVcurIn
p275
VZEC
p276
sVcurOut
p277
VLTC
p278
sVamount
p279
F0.19865
sVtxid
p280
I502632
sa(dp281
Vtimestamp
p282
F1511527856.902
sVcurIn
p283
VGNO
p284
sVcurOut
p285
VETH
p286
sVamount
p287
F2.01596662
sVtxid
p288
I780524
sa(dp289
Vtimestamp
p290
F1511527856.874
sVcurIn
p291
VGNO
p292
sVcurOut
p293
VLTC
p294
sVamount
p295
F1.01070993
sVtxid
p296
I214084
sa(dp297
Vtimestamp
p298
F1511527856.868
sVcurIn
p299
VETC
p300
sVcurOut
p301
VETH
p302
sVamount
p303
F9.545970781
sVtxid
p304
I81384
sa(dp305
Vtimestamp
p306
F1511527844.504
sVcurIn
p307
VDNT
p308
sVcurOut
p309
VETH
p310
sVamount
p311
F253.64161359999997
sVtxid
p312
I833705
sa(dp313
Vtimestamp
p314
F1511527844.493
sVcurIn
p315
VDNT
p316
sVcurOut
p317
VFUN
p318
sVamount
p319
I450
sVtxid
p320
I363110
sa(dp321
Vtimestamp
p322
F1511527843.886
sVcurIn
p323
VDOGE
p324
sVcurOut
p325
VLTC
p326
sVamount
p327
F261.3825949
sVtxid
p328
I521283
sa(dp329
Vtimestamp
p330
F1511527843.409
sVcurIn
p331
VETH
p332
sVcurOut
p333
VGNT
p334
sVamount
p335
F0.08583929
sVtxid
p336
I913036
sa(dp337
Vtimestamp
p338
F1511527842.621
sVcurIn
p339
VETH
p340
sVcurOut
p341
VLTC
p342
sVamount
p343
F0.07070322
sVtxid
p344
I23706
sa(dp345
Vtimestamp
p346
F1511527840.066
sVcurIn
p347
VDASH
p348
sVcurOut
p349
VBCH
p350
sVamount
p351
F3.5
sVtxid
p352
I125394
sa(dp353
Vtimestamp
p354
F1511527836.816
sVcurIn
p355
VGNT
p356
sVcurOut
p357
VETH
p358
sVamount
p359
F2000.69460615
sVtxid
p360
I746393
sa(dp361
Vtimestamp
p362
F1511527821.749
sVcurIn
p363
VLTC
p364
sVcurOut
p365
VETH
p366
sVamount
p367
F2.7
sVtxid
p368
I491518
sa(dp369
Vtimestamp
p370
F1511527818.112
sVcurIn
p371
VDASH
p372
sVcurOut
p373
VGNO
p374
sVamount
p375
F0.67927494
sVtxid
p376
I650556
sa(dp377
Vtimestamp
p378
F1511527816.904
sVcurIn
p379
VDASH
p380
sVcurOut
p381
VETH
p382
sVamount
p383
F0.38876546
sVtxid
p384
I781534
sa(dp385
Vtimestamp
p386
F1511527798.365
sVcurIn
p387
VLTC
p388
sVcurOut
p389
VETH
p390
sVamount
p391
F0.13572204
sVtxid
p392
I766469
sa(dp393
Vtimestamp
p394
F1511527791.737
sVcurIn
p395
VETC
p396
sVcurOut
p397
VBCH
p398
sVamount
p399
F2.28373845
sVtxid
p400
I894037
sa.