(lp0
(dp1
Vtimestamp
p2
F1511538958.845
sVcurIn
p3
VETH
p4
sVcurOut
p5
VBCH
p6
sVamount
p7
F0.47958
sVtxid
p8
I300446
sa(dp9
Vtimestamp
p10
F1511538958.817
sVcurIn
p11
VETH
p12
sVcurOut
p13
VETC
p14
sVamount
p15
F0.08287249
sVtxid
p16
I352670
sa(dp17
Vtimestamp
p18
F1511538958.764
sVcurIn
p19
VETH
p20
sVcurOut
p21
VXRP
p22
sVamount
p23
I2
sVtxid
p24
I773776
sa(dp25
Vtimestamp
p26
F1511538958.746
sVcurIn
p27
VETH
p28
sVcurOut
p29
VBTC
p30
sVamount
p31
F1.24418946
sVtxid
p32
I440657
sa(dp33
Vtimestamp
p34
F1511538897.956
sVcurIn
p35
VETH
p36
sVcurOut
p37
VBTC
p38
sVamount
p39
F0.10233497
sVtxid
p40
I707531
sa(dp41
Vtimestamp
p42
F1511538897.947
sVcurIn
p43
VETH
p44
sVcurOut
p45
VLTC
p46
sVamount
p47
F0.21960647
sVtxid
p48
I503752
sa(dp49
Vtimestamp
p50
F1511538897.935
sVcurIn
p51
VETH
p52
sVcurOut
p53
VXRP
p54
sVamount
p55
I2
sVtxid
p56
I390453
sa(dp57
Vtimestamp
p58
F1511538877.741
sVcurIn
p59
VETH
p60
sVcurOut
p61
VBCH
p62
sVamount
p63
F2.1
sVtxid
p64
I397580
sa(dp65
Vtimestamp
p66
F1511538850.101
sVcurIn
p67
VETH
p68
sVcurOut
p69
VDASH
p70
sVamount
p71
F0.3513472
sVtxid
p72
I839638
sa(dp73
Vtimestamp
p74
F1511538850.094
sVcurIn
p75
VETH
p76
sVcurOut
p77
VLTC
p78
sVamount
p79
F0.84845197
sVtxid
p80
I837328
sa(dp81
Vtimestamp
p82
F1511538850.085
sVcurIn
p83
VETH
p84
sVcurOut
p85
VLTC
p86
sVamount
p87
F0.98019078
sVtxid
p88
I883840
sa(dp89
Vtimestamp
p90
F1511538850.061
sVcurIn
p91
VETH
p92
sVcurOut
p93
VBCH
p94
sVamount
p95
F0.02930401
sVtxid
p96
I560456
sa(dp97
Vtimestamp
p98
F1511538850.044
sVcurIn
p99
VETH
p100
sVcurOut
p101
VBTC
p102
sVamount
p103
F0.06726077
sVtxid
p104
I607511
sa(dp105
Vtimestamp
p106
F1511538849.051
sVcurIn
p107
VETH
p108
sVcurOut
p109
VBTC
p110
sVamount
p111
F0.0651441749164526
sVtxid
p112
I706057
sa(dp113
Vtimestamp
p114
F1511538847.684
sVcurIn
p115
VETH
p116
sVcurOut
p117
VBTC
p118
sVamount
p119
F0.68897233
sVtxid
p120
I277334
sa(dp121
Vtimestamp
p122
F1511538820.47
sVcurIn
p123
VZEC
p124
sVcurOut
p125
VBCH
p126
sVamount
p127
F0.03156999
sVtxid
p128
I694881
sa(dp129
Vtimestamp
p130
F1511538804.738
sVcurIn
p131
VLTC
p132
sVcurOut
p133
VBCH
p134
sVamount
p135
F7.57866959
sVtxid
p136
I195534
sa(dp137
Vtimestamp
p138
F1511538803.348
sVcurIn
p139
VETH
p140
sVcurOut
p141
VBTC
p142
sVamount
p143
F2.96601552
sVtxid
p144
I219838
sa(dp145
Vtimestamp
p146
F1511538803.313
sVcurIn
p147
VSALT
p148
sVcurOut
p149
VOMG
p150
sVamount
p151
F180.54851326
sVtxid
p152
I503480
sa(dp153
Vtimestamp
p154
F1511538801.232
sVcurIn
p155
VETH
p156
sVcurOut
p157
VBCH
p158
sVamount
p159
F1.99787949
sVtxid
p160
I63297
sa(dp161
Vtimestamp
p162
F1511538769.529
sVcurIn
p163
VETH
p164
sVcurOut
p165
VBTC
p166
sVamount
p167
F0.7794768597424175
sVtxid
p168
I326939
sa(dp169
Vtimestamp
p170
F1511538746.195
sVcurIn
p171
VETH
p172
sVcurOut
p173
VXRP
p174
sVamount
p175
I2
sVtxid
p176
I520029
sa(dp177
Vtimestamp
p178
F1511538744.556
sVcurIn
p179
VETH
p180
sVcurOut
p181
VVTC
p182
sVamount
p183
F0.92
sVtxid
p184
I794038
sa(dp185
Vtimestamp
p186
F1511538742.661
sVcurIn
p187
VETH
p188
sVcurOut
p189
VETC
p190
sVamount
p191
F0.021916126982039732
sVtxid
p192
I988764
sa(dp193
Vtimestamp
p194
F1511538693.552
sVcurIn
p195
VLTC
p196
sVcurOut
p197
VREP
p198
sVamount
p199
F13.097853
sVtxid
p200
I60170
sa(dp201
Vtimestamp
p202
F1511538686.217
sVcurIn
p203
VPOT
p204
sVcurOut
p205
VETH
p206
sVamount
p207
I66
sVtxid
p208
I718415
sa(dp209
Vtimestamp
p210
F1511538681.778
sVcurIn
p211
VETH
p212
sVcurOut
p213
VXRP
p214
sVamount
p215
I2
sVtxid
p216
I839717
sa(dp217
Vtimestamp
p218
F1511538681.768
sVcurIn
p219
VETH
p220
sVcurOut
p221
VBTC
p222
sVamount
p223
F0.65596711
sVtxid
p224
I720813
sa(dp225
Vtimestamp
p226
F1511538670.163
sVcurIn
p227
VLTC
p228
sVcurOut
p229
VETH
p230
sVamount
p231
F2.99499644
sVtxid
p232
I170290
sa(dp233
Vtimestamp
p234
F1511538641.383
sVcurIn
p235
VETH
p236
sVcurOut
p237
VBTC
p238
sVamount
p239
I10
sVtxid
p240
I815826
sa(dp241
Vtimestamp
p242
F1511538641.378
sVcurIn
p243
VETH
p244
sVcurOut
p245
VLTC
p246
sVamount
p247
F0.1462
sVtxid
p248
I783735
sa(dp249
Vtimestamp
p250
F1511538641.37
sVcurIn
p251
VETH
p252
sVcurOut
p253
VFUN
p254
sVamount
p255
F0.0528932
sVtxid
p256
I420738
sa(dp257
Vtimestamp
p258
F1511538641.363
sVcurIn
p259
VETH
p260
sVcurOut
p261
VLTC
p262
sVamount
p263
F0.0331
sVtxid
p264
I22900
sa(dp265
Vtimestamp
p266
F1511538640.836
sVcurIn
p267
VSALT
p268
sVcurOut
p269
VBCH
p270
sVamount
p271
F419.72728285
sVtxid
p272
I395366
sa(dp273
Vtimestamp
p274
F1511538622.583
sVcurIn
p275
VLTC
p276
sVcurOut
p277
VBCH
p278
sVamount
p279
I6
sVtxid
p280
I43066
sa(dp281
Vtimestamp
p282
F1511538619.022
sVcurIn
p283
VETC
p284
sVcurOut
p285
VETH
p286
sVamount
p287
F3.092980353978518
sVtxid
p288
I85908
sa(dp289
Vtimestamp
p290
F1511538617.562
sVcurIn
p291
VETC
p292
sVcurOut
p293
VETH
p294
sVamount
p295
F0.3434499861355291
sVtxid
p296
I664396
sa(dp297
Vtimestamp
p298
F1511538616.677
sVcurIn
p299
VETC
p300
sVcurOut
p301
VETH
p302
sVamount
p303
F0.37470642
sVtxid
p304
I121979
sa(dp305
Vtimestamp
p306
F1511538616.641
sVcurIn
p307
VETC
p308
sVcurOut
p309
VDOGE
p310
sVamount
p311
F0.34834281745517404
sVtxid
p312
I424195
sa(dp313
Vtimestamp
p314
F1511538601.08
sVcurIn
p315
VETH
p316
sVcurOut
p317
VBTC
p318
sVamount
p319
I10
sVtxid
p320
I433115
sa(dp321
Vtimestamp
p322
F1511538601.074
sVcurIn
p323
VETH
p324
sVcurOut
p325
VBTC
p326
sVamount
p327
F4.93
sVtxid
p328
I850929
sa(dp329
Vtimestamp
p330
F1511538601.066
sVcurIn
p331
VETH
p332
sVcurOut
p333
VBTC
p334
sVamount
p335
F0.07958
sVtxid
p336
I184194
sa(dp337
Vtimestamp
p338
F1511538560.103
sVcurIn
p339
VETH
p340
sVcurOut
p341
VBTC
p342
sVamount
p343
F1.829092233
sVtxid
p344
I428822
sa(dp345
Vtimestamp
p346
F1511538542.454
sVcurIn
p347
VANT
p348
sVcurOut
p349
VGNO
p350
sVamount
p351
F40.760869570000004
sVtxid
p352
I955392
sa(dp353
Vtimestamp
p354
F1511538539.947
sVcurIn
p355
VETH
p356
sVcurOut
p357
VGNO
p358
sVamount
p359
F0.13203063
sVtxid
p360
I314543
sa(dp361
Vtimestamp
p362
F1511538539.939
sVcurIn
p363
VETH
p364
sVcurOut
p365
VLTC
p366
sVamount
p367
F0.23141516
sVtxid
p368
I661855
sa(dp369
Vtimestamp
p370
F1511538539.893
sVcurIn
p371
VETH
p372
sVcurOut
p373
VBTC
p374
sVamount
p375
F0.23
sVtxid
p376
I524215
sa(dp377
Vtimestamp
p378
F1511538531.91
sVcurIn
p379
VLTC
p380
sVcurOut
p381
VBCH
p382
sVamount
p383
F9.34737967
sVtxid
p384
I142213
sa(dp385
Vtimestamp
p386
F1511538519.725
sVcurIn
p387
VETH
p388
sVcurOut
p389
VGNT
p390
sVamount
p391
F0.017743486527124323
sVtxid
p392
I888884
sa(dp393
Vtimestamp
p394
F1511538519.633
sVcurIn
p395
VDOGE
p396
sVcurOut
p397
VETH
p398
sVamount
p399
I3500
sVtxid
p400
I700821
sa.